target datalayout = "e-m:e-p270:32:32-p271:32:32-p272:64:64-i64:64-i128:128-f80:128-n8:16:32:64-S128"
target triple = "x86_64-pc-linux-gnu"

%struct.AVChannelLayout = type { i32, i32, %union.anon, ptr }
%union.anon = type { i64 }
%struct.AVFormatContext = type { ptr, ptr, ptr, ptr, ptr, i32, i32, ptr, i32, ptr, i32, ptr, ptr, i64, i64, i64, i32, i32, i32, i64, i64, ptr, i32, i32, ptr, i32, i32, i32, i32, ptr, i64, i32, i32, %struct.AVIOInterruptCB, i32, i32, i32, i32, i64, i32, i32, i32, i32, i32, i32, i32, i32, i32, i32, i32, i32, i64, i32, i32, i32, i32, i32, ptr, ptr, ptr, ptr, i32, ptr, ptr, ptr, ptr, i32, ptr, ptr, i64, ptr, ptr, ptr, i64 }
%struct.AVIOInterruptCB = type { ptr, ptr }
%struct.IssDemuxContext = type { i32, i32 }
%struct.AVStream = type { ptr, i32, i32, ptr, ptr, %struct.AVRational, i64, i64, i64, i32, i32, %struct.AVRational, ptr, %struct.AVRational, %struct.AVPacket, i32, %struct.AVRational, i32 }
%struct.AVPacket = type { ptr, i64, i64, ptr, i32, i32, i32, ptr, i32, i64, i64, ptr, ptr, %struct.AVRational }
%struct.AVRational = type { i32, i32 }
%struct.AVCodecParameters = type { i32, i32, i32, ptr, i32, ptr, i32, i32, i64, i32, i32, i32, i32, i32, i32, %struct.AVRational, %struct.AVRational, i32, i32, i32, i32, i32, i32, i32, %struct.AVChannelLayout, i32, i32, i32, i32, i32, i32 }

; Function Attrs: alwaysinline nounwind uwtable
define internal i64 @avio_tell(ptr noundef %0) #6 {
  %2 = alloca ptr, align 8
  store ptr %0, ptr %2, align 8, !tbaa !33
  %3 = load ptr, ptr %2, align 8, !tbaa !33
  %4 = call i64 @avio_seek(ptr noundef %3, i64 noundef 0, i32 noundef 1)
  ret i64 %4
}

; Function Attrs: nounwind uwtable
define internal i32 @iss_read_packet(ptr noundef %0, ptr noundef %1) #0 {
  %3 = alloca i32, align 4
  %4 = alloca ptr, align 8
  %5 = alloca ptr, align 8
  %6 = alloca ptr, align 8
  %7 = alloca i32, align 4
  %8 = alloca i32, align 4
  store ptr %0, ptr %4, align 8, !tbaa !13
  store ptr %1, ptr %5, align 8, !tbaa !62
  call void @llvm.lifetime.start.p0(i64 8, ptr %6) #9
  %9 = load ptr, ptr %4, align 8, !tbaa !13
  %10 = getelementptr inbounds nuw %struct.AVFormatContext, ptr %9, i32 0, i32 3
  %11 = load ptr, ptr %10, align 8, !tbaa !15
  store ptr %11, ptr %6, align 8, !tbaa !30
  call void @llvm.lifetime.start.p0(i64 4, ptr %7) #9
  %12 = load ptr, ptr %4, align 8, !tbaa !13
  %13 = getelementptr inbounds nuw %struct.AVFormatContext, ptr %12, i32 0, i32 4
  %14 = load ptr, ptr %13, align 8, !tbaa !32
  %15 = load ptr, ptr %5, align 8, !tbaa !62
  %16 = load ptr, ptr %6, align 8, !tbaa !30
  %17 = getelementptr inbounds nuw %struct.IssDemuxContext, ptr %16, i32 0, i32 0
  %18 = load i32, ptr %17, align 4, !tbaa !34
  %19 = call i32 @av_get_packet(ptr noundef %14, ptr noundef %15, i32 noundef %18)
  store i32 %19, ptr %7, align 4, !tbaa !50
  %20 = load i32, ptr %7, align 4, !tbaa !50
  %21 = load ptr, ptr %6, align 8, !tbaa !30
  %22 = getelementptr inbounds nuw %struct.IssDemuxContext, ptr %21, i32 0, i32 0
  %23 = load i32, ptr %22, align 4, !tbaa !34
  %24 = icmp ne i32 %20, %23
  br i1 %24, label %25, label %26

25:                                               ; preds = %2
  store i32 -5, ptr %3, align 4
  store i32 1, ptr %8, align 4
  br label %69

26:                                               ; preds = %2
  %27 = load ptr, ptr %5, align 8, !tbaa !62
  %28 = getelementptr inbounds nuw %struct.AVPacket, ptr %27, i32 0, i32 5
  store i32 0, ptr %28, align 4, !tbaa !64
  %29 = load ptr, ptr %4, align 8, !tbaa !13
  %30 = getelementptr inbounds nuw %struct.AVFormatContext, ptr %29, i32 0, i32 4
  %31 = load ptr, ptr %30, align 8, !tbaa !32
  %32 = call i64 @avio_tell(ptr noundef %31)
  %33 = load ptr, ptr %6, align 8, !tbaa !30
  %34 = getelementptr inbounds nuw %struct.IssDemuxContext, ptr %33, i32 0, i32 1
  %35 = load i32, ptr %34, align 4, !tbaa !36
  %36 = sext i32 %35 to i64
  %37 = sub nsw i64 %32, %36
  %38 = load ptr, ptr %5, align 8, !tbaa !62
  %39 = getelementptr inbounds nuw %struct.AVPacket, ptr %38, i32 0, i32 1
  store i64 %37, ptr %39, align 8, !tbaa !65
  %40 = load ptr, ptr %4, align 8, !tbaa !13
  %41 = getelementptr inbounds nuw %struct.AVFormatContext, ptr %40, i32 0, i32 7
  %42 = load ptr, ptr %41, align 8, !tbaa !66
  %43 = getelementptr inbounds ptr, ptr %42, i64 0
  %44 = load ptr, ptr %43, align 8, !tbaa !37
  %45 = getelementptr inbounds nuw %struct.AVStream, ptr %44, i32 0, i32 3
  %46 = load ptr, ptr %45, align 8, !tbaa !39
  %47 = getelementptr inbounds nuw %struct.AVCodecParameters, ptr %46, i32 0, i32 24
  %48 = getelementptr inbounds nuw %struct.AVChannelLayout, ptr %47, i32 0, i32 1
  %49 = load i32, ptr %48, align 4, !tbaa !59
  %50 = icmp sgt i32 %49, 0
  br i1 %50, label %51, label %68

51:                                               ; preds = %26
  %52 = load ptr, ptr %4, align 8, !tbaa !13
  %53 = getelementptr inbounds nuw %struct.AVFormatContext, ptr %52, i32 0, i32 7
  %54 = load ptr, ptr %53, align 8, !tbaa !66
  %55 = getelementptr inbounds ptr, ptr %54, i64 0
  %56 = load ptr, ptr %55, align 8, !tbaa !37
  %57 = getelementptr inbounds nuw %struct.AVStream, ptr %56, i32 0, i32 3
  %58 = load ptr, ptr %57, align 8, !tbaa !39
  %59 = getelementptr inbounds nuw %struct.AVCodecParameters, ptr %58, i32 0, i32 24
  %60 = getelementptr inbounds nuw %struct.AVChannelLayout, ptr %59, i32 0, i32 1
  %61 = load i32, ptr %60, align 4, !tbaa !59
  %62 = mul nsw i32 %61, 2
  %63 = sext i32 %62 to i64
  %64 = load ptr, ptr %5, align 8, !tbaa !62
  %65 = getelementptr inbounds nuw %struct.AVPacket, ptr %64, i32 0, i32 1
  %66 = load i64, ptr %65, align 8, !tbaa !65
  %67 = sdiv i64 %66, %63
  store i64 %67, ptr %65, align 8, !tbaa !65
  br label %68

68:                                               ; preds = %51, %26
  store i32 0, ptr %3, align 4
  store i32 1, ptr %8, align 4
  br label %69

69:                                               ; preds = %68, %25
  call void @llvm.lifetime.end.p0(i64 4, ptr %7) #9
  call void @llvm.lifetime.end.p0(i64 8, ptr %6) #9
  %70 = load i32, ptr %3, align 4
  ret i32 %70
}