; Function Attrs: nounwind uwtable
define internal range(i32 -5, 1) i32 @iss_read_packet(ptr noundef readonly captures(none) %0, ptr noundef %1) #2 {
  %3 = getelementptr inbounds nuw i8, ptr %0, i64 24
  %4 = load ptr, ptr %3, align 8, !tbaa !11
  %5 = getelementptr inbounds nuw i8, ptr %0, i64 32
  %6 = load ptr, ptr %5, align 8, !tbaa !26
  %7 = load i32, ptr %4, align 4, !tbaa !27
  %8 = tail call i32 @av_get_packet(ptr noundef %6, ptr noundef %1, i32 noundef %7) #8
  %9 = load i32, ptr %4, align 4, !tbaa !27
  %.not = icmp eq i32 %8, %9
  br i1 %.not, label %10, label %31

10:                                               ; preds = %2
  %11 = getelementptr inbounds nuw i8, ptr %1, i64 36
  store i32 0, ptr %11, align 4, !tbaa !49
  %12 = load ptr, ptr %5, align 8, !tbaa !26
  %13 = tail call i64 @avio_seek(ptr noundef %12, i64 noundef 0, i32 noundef 1) #8
  %14 = getelementptr inbounds nuw i8, ptr %4, i64 4
  %15 = load i32, ptr %14, align 4, !tbaa !29
  %16 = sext i32 %15 to i64
  %17 = sub nsw i64 %13, %16
  %18 = getelementptr inbounds nuw i8, ptr %1, i64 8
  store i64 %17, ptr %18, align 8, !tbaa !50
  %19 = getelementptr inbounds nuw i8, ptr %0, i64 48
  %20 = load ptr, ptr %19, align 8, !tbaa !51
  %21 = load ptr, ptr %20, align 8, !tbaa !52
  %22 = getelementptr inbounds nuw i8, ptr %21, i64 16
  %23 = load ptr, ptr %22, align 8, !tbaa !30
  %24 = getelementptr inbounds nuw i8, ptr %23, i64 132
  %25 = load i32, ptr %24, align 4, !tbaa !46
  %26 = icmp sgt i32 %25, 0
  br i1 %26, label %27, label %31

27:                                               ; preds = %10
  %28 = shl nuw nsw i32 %25, 1
  %29 = zext nneg i32 %28 to i64
  %30 = sdiv i64 %17, %29
  store i64 %30, ptr %18, align 8, !tbaa !50
  br label %31

31:                                               ; preds = %10, %27, %2
  %.0 = phi i32 [ -5, %2 ], [ 0, %27 ], [ 0, %10 ]
  ret i32 %.0
}